; Function Attrs: nounwind uwtable
define internal range(i32 -1, 1) i32 @set_autocommit(ptr noundef captures(none) %0, ptr noundef %1, ptr readnone captures(none) %2) #0 {
  %4 = alloca ptr, align 8
  %5 = alloca ptr, align 8
  %6 = getelementptr inbounds nuw i8, ptr %0, i64 52
  %7 = load i32, ptr %6, align 4, !tbaa !21
  %.not.i = icmp eq i32 %7, 0
  br i1 %.not.i, label %16, label %8

8:                                                ; preds = %3
  %9 = tail call i64 @PyThread_get_thread_ident() #7
  %10 = getelementptr inbounds nuw i8, ptr %0, i64 64
  %11 = load i64, ptr %10, align 8, !tbaa !22
  %.not5.i = icmp eq i64 %9, %11
  br i1 %.not5.i, label %16, label %pysqlite_check_thread.exit

pysqlite_check_thread.exit:                       ; preds = %8
  %12 = getelementptr inbounds nuw i8, ptr %0, i64 208
  %13 = load ptr, ptr %12, align 8, !tbaa !23
  %14 = tail call i64 @PyThread_get_thread_ident() #7
  %15 = tail call ptr (ptr, ptr, ...) @PyErr_Format(ptr noundef %13, ptr noundef nonnull @.str.2, i64 noundef %11, i64 noundef %14) #7
  br label %connection_exec_stmt.exit

16:                                               ; preds = %8, %3
  %17 = getelementptr inbounds nuw i8, ptr %0, i64 56
  %18 = load i32, ptr %17, align 8, !tbaa !3
  %.not.i16 = icmp eq i32 %18, 0
  br i1 %.not.i16, label %19, label %23

19:                                               ; preds = %16
  %20 = getelementptr i8, ptr %0, i64 8
  %.val.i = load ptr, ptr %20, align 8, !tbaa !16
  %21 = tail call ptr @PyType_GetModuleByDef(ptr noundef %.val.i, ptr noundef nonnull @_sqlite3module) #7
  %22 = tail call ptr @PyModule_GetState(ptr noundef %21) #7
  br label %pysqlite_check_connection.exit.thread

23:                                               ; preds = %16
  %24 = getelementptr inbounds nuw i8, ptr %0, i64 16
  %25 = load ptr, ptr %24, align 8, !tbaa !17
  %.not5.i17 = icmp eq ptr %25, null
  br i1 %.not5.i17, label %26, label %pysqlite_check_connection.exit

26:                                               ; preds = %23
  %27 = getelementptr inbounds nuw i8, ptr %0, i64 24
  %28 = load ptr, ptr %27, align 8, !tbaa !18
  br label %pysqlite_check_connection.exit.thread

pysqlite_check_connection.exit.thread:            ; preds = %19, %26
  %.sink.i = phi ptr [ %28, %26 ], [ %22, %19 ]
  %.str.1.sink.i = phi ptr [ @.str.1, %26 ], [ @.str, %19 ]
  %29 = getelementptr inbounds nuw i8, ptr %.sink.i, i64 64
  %30 = load ptr, ptr %29, align 8, !tbaa !19
  tail call void @PyErr_SetString(ptr noundef %30, ptr noundef nonnull %.str.1.sink.i) #7
  br label %connection_exec_stmt.exit

pysqlite_check_connection.exit:                   ; preds = %23
  %31 = getelementptr inbounds nuw i8, ptr %0, i64 48
  %32 = icmp eq ptr %1, @_Py_TrueStruct
  br i1 %32, label %43, label %33

33:                                               ; preds = %pysqlite_check_connection.exit
  %34 = icmp eq ptr %1, @_Py_FalseStruct
  br i1 %34, label %60, label %35

35:                                               ; preds = %33
  %36 = getelementptr i8, ptr %1, i64 8
  %.val.i19 = load ptr, ptr %36, align 8, !tbaa !16
  %37 = getelementptr i8, ptr %.val.i19, i64 168
  %.val8.i = load i64, ptr %37, align 8, !tbaa !43
  %38 = and i64 %.val8.i, 16777216
  %.not.i20 = icmp eq i64 %38, 0
  br i1 %.not.i20, label %autocommit_converter.exit, label %39

39:                                               ; preds = %35
  %40 = tail call i64 @PyLong_AsLong(ptr noundef %1) #7
  %41 = icmp eq i64 %40, -1
  br i1 %41, label %.thread, label %autocommit_converter.exit

.thread:                                          ; preds = %39
  store i32 -1, ptr %31, align 4, !tbaa !96
  br label %connection_exec_stmt.exit

autocommit_converter.exit:                        ; preds = %35, %39
  %42 = load ptr, ptr @PyExc_ValueError, align 8, !tbaa !25
  tail call void @PyErr_SetString(ptr noundef %42, ptr noundef nonnull @.str.131) #7
  br label %connection_exec_stmt.exit

43:                                               ; preds = %pysqlite_check_connection.exit
  store i32 1, ptr %31, align 4, !tbaa !96
  %44 = tail call i32 @sqlite3_get_autocommit(ptr noundef nonnull %25) #7
  %.not15 = icmp eq i32 %44, 0
  br i1 %.not15, label %45, label %connection_exec_stmt.exit

45:                                               ; preds = %43
  %46 = tail call ptr @PyEval_SaveThread() #7
  call void @llvm.lifetime.start.p0(i64 8, ptr nonnull %5) #7
  %47 = load ptr, ptr %24, align 8, !tbaa !17
  %48 = call i32 @sqlite3_prepare_v2(ptr noundef %47, ptr noundef nonnull @.str.50, i32 noundef 7, ptr noundef nonnull %5, ptr noundef null) #7
  %49 = icmp eq i32 %48, 0
  br i1 %49, label %50, label %.critedge.i

50:                                               ; preds = %45
  %51 = load ptr, ptr %5, align 8, !tbaa !82
  %52 = call i32 @sqlite3_step(ptr noundef %51) #7
  %53 = load ptr, ptr %5, align 8, !tbaa !82
  %54 = call i32 @sqlite3_finalize(ptr noundef %53) #7
  %55 = icmp eq i32 %54, 0
  call void @PyEval_RestoreThread(ptr noundef %46) #7
  call void @llvm.lifetime.end.p0(i64 8, ptr nonnull %5) #7
  br i1 %55, label %connection_exec_stmt.exit, label %connection_exec_stmt.exit.thread

.critedge.i:                                      ; preds = %45
  call void @PyEval_RestoreThread(ptr noundef %46) #7
  call void @llvm.lifetime.end.p0(i64 8, ptr nonnull %5) #7
  br label %connection_exec_stmt.exit.thread

connection_exec_stmt.exit.thread:                 ; preds = %50, %.critedge.i
  %56 = getelementptr inbounds nuw i8, ptr %0, i64 24
  %57 = load ptr, ptr %56, align 8, !tbaa !18
  %58 = load ptr, ptr %24, align 8, !tbaa !17
  %59 = call i32 @_pysqlite_seterror(ptr noundef %57, ptr noundef %58) #7
  br label %connection_exec_stmt.exit

60:                                               ; preds = %33
  store i32 0, ptr %31, align 4, !tbaa !96
  %61 = tail call i32 @sqlite3_get_autocommit(ptr noundef nonnull %25) #7
  %.not14 = icmp eq i32 %61, 0
  br i1 %.not14, label %connection_exec_stmt.exit, label %62

62:                                               ; preds = %60
  %63 = tail call ptr @PyEval_SaveThread() #7
  call void @llvm.lifetime.start.p0(i64 8, ptr nonnull %4) #7
  %64 = load ptr, ptr %24, align 8, !tbaa !17
  %65 = call i32 @sqlite3_prepare_v2(ptr noundef %64, ptr noundef nonnull @.str.51, i32 noundef 6, ptr noundef nonnull %4, ptr noundef null) #7
  %66 = icmp eq i32 %65, 0
  br i1 %66, label %67, label %.critedge.i23

67:                                               ; preds = %62
  %68 = load ptr, ptr %4, align 8, !tbaa !82
  %69 = call i32 @sqlite3_step(ptr noundef %68) #7
  %70 = load ptr, ptr %4, align 8, !tbaa !82
  %71 = call i32 @sqlite3_finalize(ptr noundef %70) #7
  %72 = icmp eq i32 %71, 0
  call void @PyEval_RestoreThread(ptr noundef %63) #7
  call void @llvm.lifetime.end.p0(i64 8, ptr nonnull %4) #7
  br i1 %72, label %connection_exec_stmt.exit, label %connection_exec_stmt.exit25.thread

.critedge.i23:                                    ; preds = %62
  call void @PyEval_RestoreThread(ptr noundef %63) #7
  call void @llvm.lifetime.end.p0(i64 8, ptr nonnull %4) #7
  br label %connection_exec_stmt.exit25.thread

connection_exec_stmt.exit25.thread:               ; preds = %67, %.critedge.i23
  %73 = getelementptr inbounds nuw i8, ptr %0, i64 24
  %74 = load ptr, ptr %73, align 8, !tbaa !18
  %75 = load ptr, ptr %24, align 8, !tbaa !17
  %76 = call i32 @_pysqlite_seterror(ptr noundef %74, ptr noundef %75) #7
  br label %connection_exec_stmt.exit

connection_exec_stmt.exit:                        ; preds = %43, %60, %.thread, %50, %67, %connection_exec_stmt.exit25.thread, %connection_exec_stmt.exit.thread, %autocommit_converter.exit, %pysqlite_check_connection.exit.thread, %pysqlite_check_thread.exit
  %.0 = phi i32 [ -1, %pysqlite_check_thread.exit ], [ -1, %autocommit_converter.exit ], [ -1, %pysqlite_check_connection.exit.thread ], [ -1, %connection_exec_stmt.exit.thread ], [ -1, %connection_exec_stmt.exit25.thread ], [ 0, %67 ], [ 0, %50 ], [ 0, %.thread ], [ 0, %60 ], [ 0, %43 ]
  ret i32 %.0
}